target datalayout = "e-m:e-p270:32:32-p271:32:32-p272:64:64-i64:64-i128:128-f80:128-n8:16:32:64-S128"
target triple = "x86_64-pc-linux-gnu"

%"class.llvm::Register" = type { i32 }
%"class.llvm::MCInstrDesc" = type { i16, i16, i8, i8, i16, i8, i8, i16, i16, i64, i64 }
%"class.llvm::MachineOperand" = type { i32, %union.anon.347, ptr, %"union.llvm::MachineOperand::ContentsUnion" }
%union.anon.347 = type { i32 }
%"union.llvm::MachineOperand::ContentsUnion" = type { %"class.llvm::ArrayRef.348" }
%"class.llvm::ArrayRef.348" = type { ptr, i64 }
%"class.(anonymous namespace)::InstrConverterBase.base" = type <{ ptr, i32 }>
%"class.llvm::DebugLoc" = type { %"class.llvm::TypedTrackingMDRef" }
%"class.llvm::TypedTrackingMDRef" = type { %"class.llvm::TrackingMDRef" }
%"class.llvm::TrackingMDRef" = type { ptr }
%"class.llvm::MachineInstr" = type <{ %"class.llvm::ilist_node_with_parent", ptr, ptr, ptr, [3 x i8], %"class.llvm::ArrayRecycler<llvm::MachineOperand>::Capacity", i32, %"class.llvm::PointerSumType", %"class.llvm::DebugLoc", i32, i16, [2 x i8] }>
%"class.llvm::ilist_node_with_parent" = type { %"class.llvm::ilist_node.298" }
%"class.llvm::ilist_node.298" = type { %"class.llvm::ilist_node_impl.299" }
%"class.llvm::ilist_node_impl.299" = type { %"class.llvm::ilist_node_base.300" }
%"class.llvm::ilist_node_base.300" = type { %"class.llvm::ilist_detail::node_base_prevnext.301" }
%"class.llvm::ilist_detail::node_base_prevnext.301" = type { %"class.llvm::PointerIntPair.302", ptr }
%"class.llvm::PointerIntPair.302" = type { %"struct.llvm::detail::PunnedPointer.303" }
%"struct.llvm::detail::PunnedPointer.303" = type { [8 x i8] }
%"class.llvm::ArrayRecycler<llvm::MachineOperand>::Capacity" = type { i8 }
%"class.llvm::PointerSumType" = type { %"union.llvm::PointerSumType<llvm::MachineInstr::ExtraInfoInlineKinds, llvm::PointerSumTypeMember<0, llvm::MachineMemOperand *>, llvm::PointerSumTypeMember<1, llvm::MCSymbol *>, llvm::PointerSumTypeMember<2, llvm::MCSymbol *>, llvm::PointerSumTypeMember<3, llvm::MachineInstr::ExtraInfo *>>::StorageT" }
%"union.llvm::PointerSumType<llvm::MachineInstr::ExtraInfoInlineKinds, llvm::PointerSumTypeMember<0, llvm::MachineMemOperand *>, llvm::PointerSumTypeMember<1, llvm::MCSymbol *>, llvm::PointerSumTypeMember<2, llvm::MCSymbol *>, llvm::PointerSumTypeMember<3, llvm::MachineInstr::ExtraInfo *>>::StorageT" = type { i64 }
%"class.llvm::MCInstrInfo" = type <{ ptr, ptr, ptr, ptr, ptr, i32, [4 x i8] }>
%"class.(anonymous namespace)::InstrReplacer" = type { %"class.(anonymous namespace)::InstrConverterBase.base", i32 }
%"class.llvm::iterator_range" = type { ptr, ptr }

; Function Attrs: mustprogress nounwind uwtable
define linkonce_odr hidden void @_ZN4llvm14iterator_rangeIPKNS_14MachineOperandEEC2ES3_S3_(ptr noundef nonnull align 8 dereferenceable(16) %0, ptr noundef %1, ptr noundef %2) unnamed_addr #1 comdat align 2 {
  %4 = alloca ptr, align 8
  %5 = alloca ptr, align 8
  %6 = alloca ptr, align 8
  store ptr %0, ptr %4, align 8
  store ptr %1, ptr %5, align 8
  store ptr %2, ptr %6, align 8
  %7 = load ptr, ptr %4, align 8
  %8 = getelementptr inbounds nuw %"class.llvm::iterator_range", ptr %7, i32 0, i32 0
  %9 = load ptr, ptr %5, align 8
  store ptr %9, ptr %8, align 8
  %10 = getelementptr inbounds nuw %"class.llvm::iterator_range", ptr %7, i32 0, i32 1
  %11 = load ptr, ptr %6, align 8
  store ptr %11, ptr %10, align 8
  ret void
}

; Function Attrs: mustprogress nounwind uwtable
define linkonce_odr hidden noundef ptr @_ZNK4llvm12MachineInstr14operands_beginEv(ptr noundef nonnull align 8 dereferenceable(70) %0) #1 comdat align 2 {
  %2 = alloca ptr, align 8
  store ptr %0, ptr %2, align 8
  %3 = load ptr, ptr %2, align 8
  %4 = getelementptr inbounds nuw %"class.llvm::MachineInstr", ptr %3, i32 0, i32 3
  %5 = load ptr, ptr %4, align 8
  ret ptr %5
}

; Function Attrs: mustprogress nounwind uwtable
define linkonce_odr hidden void @_ZN4llvm8RegisterC2Ej(ptr noundef nonnull align 4 dereferenceable(4) %0, i32 noundef %1) unnamed_addr #1 comdat align 2 {
  %3 = alloca ptr, align 8
  %4 = alloca i32, align 4
  store ptr %0, ptr %3, align 8
  store i32 %1, ptr %4, align 4
  %5 = load ptr, ptr %3, align 8
  %6 = getelementptr inbounds nuw %"class.llvm::Register", ptr %5, i32 0, i32 0
  %7 = load i32, ptr %4, align 4
  store i32 %7, ptr %6, align 4
  ret void
}

; Function Attrs: mustprogress nounwind uwtable
define linkonce_odr { ptr, ptr } @_ZN4llvm10make_rangeIPKNS_14MachineOperandEEENS_14iterator_rangeIT_EES5_S5_(ptr noundef %0, ptr noundef %1) #1 comdat {
  %3 = alloca %"class.llvm::iterator_range", align 8
  %4 = alloca ptr, align 8
  %5 = alloca ptr, align 8
  store ptr %0, ptr %4, align 8
  store ptr %1, ptr %5, align 8
  %6 = load ptr, ptr %4, align 8
  %7 = load ptr, ptr %5, align 8
  call void @_ZN4llvm14iterator_rangeIPKNS_14MachineOperandEEC2ES3_S3_(ptr noundef nonnull align 8 dereferenceable(16) %3, ptr noundef %6, ptr noundef %7)
  %8 = load { ptr, ptr }, ptr %3, align 8
  ret { ptr, ptr } %8
}

; Function Attrs: mustprogress nounwind uwtable
define linkonce_odr hidden noundef ptr @_ZNK4llvm12MachineInstr12operands_endEv(ptr noundef nonnull align 8 dereferenceable(70) %0) #1 comdat align 2 {
  %2 = alloca ptr, align 8
  store ptr %0, ptr %2, align 8
  %3 = load ptr, ptr %2, align 8
  %4 = getelementptr inbounds nuw %"class.llvm::MachineInstr", ptr %3, i32 0, i32 3
  %5 = load ptr, ptr %4, align 8
  %6 = getelementptr inbounds nuw %"class.llvm::MachineInstr", ptr %3, i32 0, i32 4
  %7 = load i24, ptr %6, align 8
  %8 = zext i24 %7 to i32
  %9 = sext i32 %8 to i64
  %10 = getelementptr inbounds %"class.llvm::MachineOperand", ptr %5, i64 %9
  ret ptr %10
}

; Function Attrs: mustprogress nounwind uwtable
define linkonce_odr hidden { ptr, ptr } @_ZNK4llvm12MachineInstr17explicit_operandsEv(ptr noundef nonnull align 8 dereferenceable(70) %0) #1 comdat align 2 {
  %2 = alloca %"class.llvm::iterator_range", align 8
  %3 = alloca ptr, align 8
  store ptr %0, ptr %3, align 8
  %4 = load ptr, ptr %3, align 8
  %5 = call noundef ptr @_ZNK4llvm12MachineInstr14operands_beginEv(ptr noundef nonnull align 8 dereferenceable(70) %4)
  %6 = call noundef ptr @_ZNK4llvm12MachineInstr14operands_beginEv(ptr noundef nonnull align 8 dereferenceable(70) %4)
  %7 = call noundef i32 @_ZNK4llvm12MachineInstr22getNumExplicitOperandsEv(ptr noundef nonnull align 8 dereferenceable(70) %4)
  %8 = zext i32 %7 to i64
  %9 = getelementptr inbounds %"class.llvm::MachineOperand", ptr %6, i64 %8
  %10 = call { ptr, ptr } @_ZN4llvm10make_rangeIPKNS_14MachineOperandEEENS_14iterator_rangeIT_EES5_S5_(ptr noundef %5, ptr noundef %9)
  %11 = getelementptr inbounds nuw { ptr, ptr }, ptr %2, i32 0, i32 0
  %12 = extractvalue { ptr, ptr } %10, 0
  store ptr %12, ptr %11, align 8
  %13 = getelementptr inbounds nuw { ptr, ptr }, ptr %2, i32 0, i32 1
  %14 = extractvalue { ptr, ptr } %10, 1
  store ptr %14, ptr %13, align 8
  %15 = load { ptr, ptr }, ptr %2, align 8
  ret { ptr, ptr } %15
}

; Function Attrs: mustprogress nounwind uwtable
define linkonce_odr hidden noundef i32 @_ZNK4llvm8RegistercvjEv(ptr noundef nonnull align 4 dereferenceable(4) %0) #1 comdat align 2 {
  %2 = alloca ptr, align 8
  store ptr %0, ptr %2, align 8
  %3 = load ptr, ptr %2, align 8
  %4 = getelementptr inbounds nuw %"class.llvm::Register", ptr %3, i32 0, i32 0
  %5 = load i32, ptr %4, align 4
  ret i32 %5
}

; Function Attrs: mustprogress nounwind uwtable
define linkonce_odr hidden i32 @_ZNK4llvm14MachineOperand6getRegEv(ptr noundef nonnull align 8 dereferenceable(32) %0) #1 comdat align 2 {
  %2 = alloca %"class.llvm::Register", align 4
  %3 = alloca ptr, align 8
  store ptr %0, ptr %3, align 8
  %4 = load ptr, ptr %3, align 8
  %5 = getelementptr inbounds nuw %"class.llvm::MachineOperand", ptr %4, i32 0, i32 1
  %6 = load i32, ptr %5, align 4
  call void @_ZN4llvm8RegisterC2Ej(ptr noundef nonnull align 4 dereferenceable(4) %2, i32 noundef %6)
  %7 = getelementptr inbounds nuw %"class.llvm::Register", ptr %2, i32 0, i32 0
  %8 = load i32, ptr %7, align 4
  ret i32 %8
}

; Function Attrs: mustprogress nounwind uwtable
define linkonce_odr hidden noundef nonnull align 8 dereferenceable(32) ptr @_ZNK4llvm11MCInstrInfo3getEj(ptr noundef nonnull align 8 dereferenceable(44) %0, i32 noundef %1) #1 comdat align 2 {
  %3 = alloca ptr, align 8
  %4 = alloca i32, align 4
  store ptr %0, ptr %3, align 8
  store i32 %1, ptr %4, align 4
  %5 = load ptr, ptr %3, align 8
  %6 = getelementptr inbounds nuw %"class.llvm::MCInstrInfo", ptr %5, i32 0, i32 0
  %7 = load ptr, ptr %6, align 8
  %8 = load i32, ptr %4, align 4
  %9 = zext i32 %8 to i64
  %10 = sub i64 0, %9
  %11 = getelementptr inbounds %"class.llvm::MCInstrDesc", ptr %7, i64 %10
  ret ptr %11
}

; Function Attrs: mustprogress nounwind uwtable
define linkonce_odr hidden noundef zeroext i1 @_ZNK4llvm14MachineOperand6isDeadEv(ptr noundef nonnull align 8 dereferenceable(32) %0) #1 comdat align 2 {
  %2 = alloca ptr, align 8
  store ptr %0, ptr %2, align 8
  %3 = load ptr, ptr %2, align 8
  %4 = load i32, ptr %3, align 8
  %5 = lshr i32 %4, 26
  %6 = and i32 %5, 1
  %7 = load i32, ptr %3, align 8
  %8 = lshr i32 %7, 24
  %9 = and i32 %8, 1
  %10 = and i32 %6, %9
  %11 = icmp ne i32 %10, 0
  ret i1 %11
}

; Function Attrs: mustprogress nounwind uwtable
define linkonce_odr hidden noundef zeroext i1 @_ZNK4llvm14MachineOperand5isDefEv(ptr noundef nonnull align 8 dereferenceable(32) %0) #1 comdat align 2 {
  %2 = alloca ptr, align 8
  store ptr %0, ptr %2, align 8
  %3 = load ptr, ptr %2, align 8
  %4 = load i32, ptr %3, align 8
  %5 = lshr i32 %4, 24
  %6 = and i32 %5, 1
  %7 = icmp ne i32 %6, 0
  ret i1 %7
}

; Function Attrs: mustprogress nounwind uwtable
define linkonce_odr hidden noundef zeroext i1 @_ZNK4llvm14MachineOperand5isRegEv(ptr noundef nonnull align 8 dereferenceable(32) %0) #1 comdat align 2 {
  %2 = alloca ptr, align 8
  store ptr %0, ptr %2, align 8
  %3 = load ptr, ptr %2, align 8
  %4 = load i32, ptr %3, align 8
  %5 = and i32 %4, 255
  %6 = icmp eq i32 %5, 0
  ret i1 %6
}

; Function Attrs: mustprogress nounwind uwtable
define linkonce_odr hidden noundef ptr @_ZNK4llvm14iterator_rangeIPKNS_14MachineOperandEE3endEv(ptr noundef nonnull align 8 dereferenceable(16) %0) #1 comdat align 2 {
  %2 = alloca ptr, align 8
  store ptr %0, ptr %2, align 8
  %3 = load ptr, ptr %2, align 8
  %4 = getelementptr inbounds nuw %"class.llvm::iterator_range", ptr %3, i32 0, i32 1
  %5 = load ptr, ptr %4, align 8
  ret ptr %5
}

; Function Attrs: mustprogress nounwind uwtable
define linkonce_odr hidden noundef ptr @_ZNK4llvm14iterator_rangeIPKNS_14MachineOperandEE5beginEv(ptr noundef nonnull align 8 dereferenceable(16) %0) #1 comdat align 2 {
  %2 = alloca ptr, align 8
  store ptr %0, ptr %2, align 8
  %3 = load ptr, ptr %2, align 8
  %4 = getelementptr inbounds nuw %"class.llvm::iterator_range", ptr %3, i32 0, i32 0
  %5 = load ptr, ptr %4, align 8
  ret ptr %5
}

; Function Attrs: mustprogress nounwind uwtable
define linkonce_odr hidden { ptr, ptr } @_ZNK4llvm12MachineInstr17implicit_operandsEv(ptr noundef nonnull align 8 dereferenceable(70) %0) #1 comdat align 2 {
  %2 = alloca %"class.llvm::iterator_range", align 8
  %3 = alloca ptr, align 8
  %4 = alloca %"class.llvm::iterator_range", align 8
  store ptr %0, ptr %3, align 8
  %5 = load ptr, ptr %3, align 8
  %6 = call { ptr, ptr } @_ZNK4llvm12MachineInstr17explicit_operandsEv(ptr noundef nonnull align 8 dereferenceable(70) %5)
  %7 = getelementptr inbounds nuw { ptr, ptr }, ptr %4, i32 0, i32 0
  %8 = extractvalue { ptr, ptr } %6, 0
  store ptr %8, ptr %7, align 8
  %9 = getelementptr inbounds nuw { ptr, ptr }, ptr %4, i32 0, i32 1
  %10 = extractvalue { ptr, ptr } %6, 1
  store ptr %10, ptr %9, align 8
  %11 = call noundef ptr @_ZNK4llvm14iterator_rangeIPKNS_14MachineOperandEE3endEv(ptr noundef nonnull align 8 dereferenceable(16) %4)
  %12 = call noundef ptr @_ZNK4llvm12MachineInstr12operands_endEv(ptr noundef nonnull align 8 dereferenceable(70) %5)
  %13 = call { ptr, ptr } @_ZN4llvm10make_rangeIPKNS_14MachineOperandEEENS_14iterator_rangeIT_EES5_S5_(ptr noundef %11, ptr noundef %12)
  %14 = getelementptr inbounds nuw { ptr, ptr }, ptr %2, i32 0, i32 0
  %15 = extractvalue { ptr, ptr } %13, 0
  store ptr %15, ptr %14, align 8
  %16 = getelementptr inbounds nuw { ptr, ptr }, ptr %2, i32 0, i32 1
  %17 = extractvalue { ptr, ptr } %13, 1
  store ptr %17, ptr %16, align 8
  %18 = load { ptr, ptr }, ptr %2, align 8
  ret { ptr, ptr } %18
}

; Function Attrs: mustprogress nounwind uwtable
define internal noundef zeroext i1 @_ZNK12_GLOBAL__N_118InstrConverterBase7isLegalEPKN4llvm12MachineInstrEPKNS1_15TargetInstrInfoE(ptr noundef nonnull align 8 dereferenceable(12) %0, ptr noundef %1, ptr noundef %2) unnamed_addr #1 align 2 {
  %4 = alloca ptr, align 8
  %5 = alloca ptr, align 8
  %6 = alloca ptr, align 8
  store ptr %0, ptr %4, align 8
  store ptr %1, ptr %5, align 8
  store ptr %2, ptr %6, align 8
  ret i1 true
}

; Function Attrs: mustprogress nounwind uwtable
define internal noundef zeroext i1 @_ZNK12_GLOBAL__N_113InstrReplacer7isLegalEPKN4llvm12MachineInstrEPKNS1_15TargetInstrInfoE(ptr noundef nonnull align 8 dereferenceable(16) %0, ptr noundef %1, ptr noundef %2) unnamed_addr #1 align 2 {
  %4 = alloca i1, align 1
  %5 = alloca ptr, align 8
  %6 = alloca ptr, align 8
  %7 = alloca ptr, align 8
  %8 = alloca ptr, align 8
  %9 = alloca %"class.llvm::iterator_range", align 8
  %10 = alloca ptr, align 8
  %11 = alloca ptr, align 8
  %12 = alloca ptr, align 8
  %13 = alloca %"class.llvm::Register", align 4
  store ptr %0, ptr %5, align 8
  store ptr %1, ptr %6, align 8
  store ptr %2, ptr %7, align 8
  %14 = load ptr, ptr %5, align 8
  %15 = load ptr, ptr %6, align 8
  %16 = load ptr, ptr %7, align 8
  %17 = call noundef zeroext i1 @_ZNK12_GLOBAL__N_118InstrConverterBase7isLegalEPKN4llvm12MachineInstrEPKNS1_15TargetInstrInfoE(ptr noundef nonnull align 8 dereferenceable(12) %14, ptr noundef %15, ptr noundef %16)
  br i1 %17, label %19, label %18

18:                                               ; preds = %3
  store i1 false, ptr %4, align 1
  br label %64

19:                                               ; preds = %3
  %20 = load ptr, ptr %6, align 8
  %21 = call { ptr, ptr } @_ZNK4llvm12MachineInstr17implicit_operandsEv(ptr noundef nonnull align 8 dereferenceable(70) %20)
  %22 = getelementptr inbounds nuw { ptr, ptr }, ptr %9, i32 0, i32 0
  %23 = extractvalue { ptr, ptr } %21, 0
  store ptr %23, ptr %22, align 8
  %24 = getelementptr inbounds nuw { ptr, ptr }, ptr %9, i32 0, i32 1
  %25 = extractvalue { ptr, ptr } %21, 1
  store ptr %25, ptr %24, align 8
  store ptr %9, ptr %8, align 8
  %26 = load ptr, ptr %8, align 8
  %27 = call noundef ptr @_ZNK4llvm14iterator_rangeIPKNS_14MachineOperandEE5beginEv(ptr noundef nonnull align 8 dereferenceable(16) %26)
  store ptr %27, ptr %10, align 8
  %28 = load ptr, ptr %8, align 8
  %29 = call noundef ptr @_ZNK4llvm14iterator_rangeIPKNS_14MachineOperandEE3endEv(ptr noundef nonnull align 8 dereferenceable(16) %28)
  store ptr %29, ptr %11, align 8
  br label %30

30:                                               ; preds = %60, %19
  %31 = load ptr, ptr %10, align 8
  %32 = load ptr, ptr %11, align 8
  %33 = icmp ne ptr %31, %32
  br i1 %33, label %34, label %63

34:                                               ; preds = %30
  %35 = load ptr, ptr %10, align 8
  store ptr %35, ptr %12, align 8
  %36 = load ptr, ptr %12, align 8
  %37 = call noundef zeroext i1 @_ZNK4llvm14MachineOperand5isRegEv(ptr noundef nonnull align 8 dereferenceable(32) %36)
  br i1 %37, label %38, label %56

38:                                               ; preds = %34
  %39 = load ptr, ptr %12, align 8
  %40 = call noundef zeroext i1 @_ZNK4llvm14MachineOperand5isDefEv(ptr noundef nonnull align 8 dereferenceable(32) %39)
  br i1 %40, label %41, label %56

41:                                               ; preds = %38
  %42 = load ptr, ptr %12, align 8
  %43 = call noundef zeroext i1 @_ZNK4llvm14MachineOperand6isDeadEv(ptr noundef nonnull align 8 dereferenceable(32) %42)
  br i1 %43, label %56, label %44

44:                                               ; preds = %41
  %45 = load ptr, ptr %7, align 8
  %46 = getelementptr inbounds i8, ptr %45, i64 8
  %47 = getelementptr inbounds nuw %"class.(anonymous namespace)::InstrReplacer", ptr %14, i32 0, i32 1
  %48 = load i32, ptr %47, align 4
  %49 = call noundef nonnull align 8 dereferenceable(32) ptr @_ZNK4llvm11MCInstrInfo3getEj(ptr noundef nonnull align 8 dereferenceable(44) %46, i32 noundef %48)
  %50 = load ptr, ptr %12, align 8
  %51 = call i32 @_ZNK4llvm14MachineOperand6getRegEv(ptr noundef nonnull align 8 dereferenceable(32) %50)
  %52 = getelementptr inbounds nuw %"class.llvm::Register", ptr %13, i32 0, i32 0
  store i32 %51, ptr %52, align 4
  %53 = call noundef i32 @_ZNK4llvm8RegistercvjEv(ptr noundef nonnull align 4 dereferenceable(4) %13)
  %54 = call noundef zeroext i1 @_ZNK4llvm11MCInstrDesc23hasImplicitDefOfPhysRegEjPKNS_14MCRegisterInfoE(ptr noundef nonnull align 8 dereferenceable(32) %49, i32 noundef %53, ptr noundef null)
  %55 = xor i1 %54, true
  br label %56

56:                                               ; preds = %44, %41, %38, %34
  %57 = phi i1 [ false, %41 ], [ false, %38 ], [ false, %34 ], [ %55, %44 ]
  br i1 %57, label %58, label %59

58:                                               ; preds = %56
  store i1 false, ptr %4, align 1
  br label %64

59:                                               ; preds = %56
  br label %60

60:                                               ; preds = %59
  %61 = load ptr, ptr %10, align 8
  %62 = getelementptr inbounds %"class.llvm::MachineOperand", ptr %61, i32 1
  store ptr %62, ptr %10, align 8
  br label %30

63:                                               ; preds = %30
  store i1 true, ptr %4, align 1
  br label %64

64:                                               ; preds = %63, %58, %18
  %65 = load i1, ptr %4, align 1
  ret i1 %65
}