; Function Attrs: mustprogress nounwind uwtable
define internal noundef zeroext i1 @_ZNK12_GLOBAL__N_113InstrReplacer7isLegalEPKN4llvm12MachineInstrEPKNS1_15TargetInstrInfoE(ptr noundef nonnull readonly align 8 captures(none) dereferenceable(16) %0, ptr noundef nonnull %1, ptr noundef readonly captures(none) %2) unnamed_addr #0 align 2 {
  %4 = getelementptr inbounds nuw i8, ptr %1, i64 32
  %5 = load ptr, ptr %4, align 8
  %6 = tail call noundef i32 @_ZNK4llvm12MachineInstr22getNumExplicitOperandsEv(ptr noundef nonnull align 8 dereferenceable(70) %1) #17
  %7 = zext i32 %6 to i64
  %8 = getelementptr inbounds nuw %"class.llvm::MachineOperand", ptr %5, i64 %7
  %9 = load ptr, ptr %4, align 8
  %10 = getelementptr inbounds nuw i8, ptr %1, i64 40
  %11 = load i24, ptr %10, align 8
  %12 = zext i24 %11 to i64
  %13 = getelementptr inbounds nuw %"class.llvm::MachineOperand", ptr %9, i64 %12
  %.not21 = icmp eq ptr %8, %13
  br i1 %.not21, label %._crit_edge, label %.lr.ph

.lr.ph:                                           ; preds = %3
  %14 = getelementptr inbounds nuw i8, ptr %2, i64 8
  %15 = getelementptr inbounds nuw i8, ptr %0, i64 12
  br label %16

16:                                               ; preds = %.lr.ph, %.critedge
  %.01622 = phi ptr [ %8, %.lr.ph ], [ %30, %.critedge ]
  %17 = load i32, ptr %.01622, align 8
  %18 = and i32 %17, 16777471
  %or.cond = icmp ne i32 %18, 16777216
  %19 = and i32 %17, 83886080
  %20 = icmp eq i32 %19, 83886080
  %or.cond20 = or i1 %or.cond, %20
  br i1 %or.cond20, label %.critedge, label %21

21:                                               ; preds = %16
  %22 = load i32, ptr %15, align 4
  %23 = load ptr, ptr %14, align 8
  %24 = zext i32 %22 to i64
  %25 = sub nsw i64 0, %24
  %26 = getelementptr inbounds %"class.llvm::MCInstrDesc", ptr %23, i64 %25
  %27 = getelementptr inbounds nuw i8, ptr %.01622, i64 4
  %28 = load i32, ptr %27, align 4
  %29 = tail call noundef zeroext i1 @_ZNK4llvm11MCInstrDesc23hasImplicitDefOfPhysRegEjPKNS_14MCRegisterInfoE(ptr noundef nonnull align 8 dereferenceable(32) %26, i32 noundef %28, ptr noundef null) #17
  br i1 %29, label %.critedge, label %._crit_edge

.critedge:                                        ; preds = %21, %16
  %30 = getelementptr inbounds nuw i8, ptr %.01622, i64 32
  %.not = icmp eq ptr %30, %13
  br i1 %.not, label %._crit_edge, label %16

._crit_edge:                                      ; preds = %21, %.critedge, %3
  %.not.lcssa = phi i1 [ true, %3 ], [ true, %.critedge ], [ false, %21 ]
  ret i1 %.not.lcssa
}